; ModuleID = '46/2384.c'
source_filename = "46/2384.c"
target datalayout = "e-m:e-p270:32:32-p271:32:32-p272:64:64-i64:64-f80:128-n8:16:32:64-S128"
target triple = "x86_64-pc-linux-gnu"

@.str = private unnamed_addr constant [6 x i8] c"%d %d\00", align 1
@.str.1 = private unnamed_addr constant [3 x i8] c"%d\00", align 1
@.str.2 = private unnamed_addr constant [4 x i8] c"%d\0A\00", align 1

; Function Attrs: noinline nounwind uwtable
define dso_local i32 @main() #0 {
  %1 = alloca i32, align 4
  %2 = alloca [100 x [100 x i32]], align 16
  %3 = alloca i32, align 4
  %4 = alloca i32, align 4
  %5 = alloca i32, align 4
  %6 = alloca i32, align 4
  %7 = alloca i32, align 4
  %8 = alloca i32, align 4
  %9 = alloca i32, align 4
  %10 = alloca i32, align 4
  %11 = alloca i32, align 4
  %12 = alloca i32, align 4
  store i32 0, i32* %1, align 4
  store i32 0, i32* %12, align 4
  %13 = call i32 (i8*, ...) @__isoc99_scanf(i8* getelementptr inbounds ([6 x i8], [6 x i8]* @.str, i64 0, i64 0), i32* %3, i32* %4)
  store i32 0, i32* %5, align 4
  br label %14

14:                                               ; preds = %35, %0
  %15 = load i32, i32* %5, align 4
  %16 = load i32, i32* %3, align 4
  %17 = icmp slt i32 %15, %16
  br i1 %17, label %18, label %38

18:                                               ; preds = %14
  store i32 0, i32* %6, align 4
  br label %19

19:                                               ; preds = %31, %18
  %20 = load i32, i32* %6, align 4
  %21 = load i32, i32* %4, align 4
  %22 = icmp slt i32 %20, %21
  br i1 %22, label %23, label %34

23:                                               ; preds = %19
  %24 = load i32, i32* %5, align 4
  %25 = sext i32 %24 to i64
  %26 = getelementptr inbounds [100 x [100 x i32]], [100 x [100 x i32]]* %2, i64 0, i64 %25
  %27 = load i32, i32* %6, align 4
  %28 = sext i32 %27 to i64
  %29 = getelementptr inbounds [100 x i32], [100 x i32]* %26, i64 0, i64 %28
  %30 = call i32 (i8*, ...) @__isoc99_scanf(i8* getelementptr inbounds ([3 x i8], [3 x i8]* @.str.1, i64 0, i64 0), i32* %29)
  br label %31

31:                                               ; preds = %23
  %32 = load i32, i32* %6, align 4
  %33 = add nsw i32 %32, 1
  store i32 %33, i32* %6, align 4
  br label %19

34:                                               ; preds = %19
  br label %35

35:                                               ; preds = %34
  %36 = load i32, i32* %5, align 4
  %37 = add nsw i32 %36, 1
  store i32 %37, i32* %5, align 4
  br label %14

38:                                               ; preds = %14
  store i32 0, i32* %7, align 4
  %39 = load i32, i32* %3, align 4
  %40 = sub nsw i32 %39, 1
  store i32 %40, i32* %8, align 4
  store i32 0, i32* %9, align 4
  %41 = load i32, i32* %4, align 4
  %42 = sub nsw i32 %41, 1
  store i32 %42, i32* %10, align 4
  store i32 1, i32* %11, align 4
  br label %43

43:                                               ; preds = %149, %38
  %44 = load i32, i32* %12, align 4
  %45 = load i32, i32* %3, align 4
  %46 = load i32, i32* %4, align 4
  %47 = mul nsw i32 %45, %46
  %48 = icmp slt i32 %44, %47
  br i1 %48, label %49, label %152

49:                                               ; preds = %43
  %50 = load i32, i32* %11, align 4
  %51 = srem i32 %50, 4
  switch i32 %51, label %148 [
    i32 1, label %52
    i32 2, label %76
    i32 3, label %100
    i32 0, label %124
  ]

52:                                               ; preds = %49
  %53 = load i32, i32* %7, align 4
  store i32 %53, i32* %5, align 4
  %54 = load i32, i32* %9, align 4
  store i32 %54, i32* %6, align 4
  br label %55

55:                                               ; preds = %70, %52
  %56 = load i32, i32* %6, align 4
  %57 = load i32, i32* %10, align 4
  %58 = icmp sle i32 %56, %57
  br i1 %58, label %59, label %73

59:                                               ; preds = %55
  %60 = load i32, i32* %5, align 4
  %61 = sext i32 %60 to i64
  %62 = getelementptr inbounds [100 x [100 x i32]], [100 x [100 x i32]]* %2, i64 0, i64 %61
  %63 = load i32, i32* %6, align 4
  %64 = sext i32 %63 to i64
  %65 = getelementptr inbounds [100 x i32], [100 x i32]* %62, i64 0, i64 %64
  %66 = load i32, i32* %65, align 4
  %67 = call i32 (i8*, ...) @printf(i8* getelementptr inbounds ([4 x i8], [4 x i8]* @.str.2, i64 0, i64 0), i32 %66)
  %68 = load i32, i32* %12, align 4
  %69 = add nsw i32 %68, 1
  store i32 %69, i32* %12, align 4
  br label %70

70:                                               ; preds = %59
  %71 = load i32, i32* %6, align 4
  %72 = add nsw i32 %71, 1
  store i32 %72, i32* %6, align 4
  br label %55

73:                                               ; preds = %55
  %74 = load i32, i32* %7, align 4
  %75 = add nsw i32 %74, 1
  store i32 %75, i32* %7, align 4
  br label %148

76:                                               ; preds = %49
  %77 = load i32, i32* %10, align 4
  store i32 %77, i32* %6, align 4
  %78 = load i32, i32* %7, align 4
  store i32 %78, i32* %5, align 4
  br label %79

79:                                               ; preds = %94, %76
  %80 = load i32, i32* %5, align 4
  %81 = load i32, i32* %8, align 4
  %82 = icmp sle i32 %80, %81
  br i1 %82, label %83, label %97

83:                                               ; preds = %79
  %84 = load i32, i32* %5, align 4
  %85 = sext i32 %84 to i64
  %86 = getelementptr inbounds [100 x [100 x i32]], [100 x [100 x i32]]* %2, i64 0, i64 %85
  %87 = load i32, i32* %6, align 4
  %88 = sext i32 %87 to i64
  %89 = getelementptr inbounds [100 x i32], [100 x i32]* %86, i64 0, i64 %88
  %90 = load i32, i32* %89, align 4
  %91 = call i32 (i8*, ...) @printf(i8* getelementptr inbounds ([4 x i8], [4 x i8]* @.str.2, i64 0, i64 0), i32 %90)
  %92 = load i32, i32* %12, align 4
  %93 = add nsw i32 %92, 1
  store i32 %93, i32* %12, align 4
  br label %94

94:                                               ; preds = %83
  %95 = load i32, i32* %5, align 4
  %96 = add nsw i32 %95, 1
  store i32 %96, i32* %5, align 4
  br label %79

97:                                               ; preds = %79
  %98 = load i32, i32* %10, align 4
  %99 = add nsw i32 %98, -1
  store i32 %99, i32* %10, align 4
  br label %148

100:                                              ; preds = %49
  %101 = load i32, i32* %8, align 4
  store i32 %101, i32* %5, align 4
  %102 = load i32, i32* %10, align 4
  store i32 %102, i32* %6, align 4
  br label %103

103:                                              ; preds = %118, %100
  %104 = load i32, i32* %6, align 4
  %105 = load i32, i32* %9, align 4
  %106 = icmp sge i32 %104, %105
  br i1 %106, label %107, label %121

107:                                              ; preds = %103
  %108 = load i32, i32* %5, align 4
  %109 = sext i32 %108 to i64
  %110 = getelementptr inbounds [100 x [100 x i32]], [100 x [100 x i32]]* %2, i64 0, i64 %109
  %111 = load i32, i32* %6, align 4
  %112 = sext i32 %111 to i64
  %113 = getelementptr inbounds [100 x i32], [100 x i32]* %110, i64 0, i64 %112
  %114 = load i32, i32* %113, align 4
  %115 = call i32 (i8*, ...) @printf(i8* getelementptr inbounds ([4 x i8], [4 x i8]* @.str.2, i64 0, i64 0), i32 %114)
  %116 = load i32, i32* %12, align 4
  %117 = add nsw i32 %116, 1
  store i32 %117, i32* %12, align 4
  br label %118

118:                                              ; preds = %107
  %119 = load i32, i32* %6, align 4
  %120 = add nsw i32 %119, -1
  store i32 %120, i32* %6, align 4
  br label %103

121:                                              ; preds = %103
  %122 = load i32, i32* %8, align 4
  %123 = add nsw i32 %122, -1
  store i32 %123, i32* %8, align 4
  br label %148

124:                                              ; preds = %49
  %125 = load i32, i32* %9, align 4
  store i32 %125, i32* %6, align 4
  %126 = load i32, i32* %8, align 4
  store i32 %126, i32* %5, align 4
  br label %127

127:                                              ; preds = %142, %124
  %128 = load i32, i32* %5, align 4
  %129 = load i32, i32* %7, align 4
  %130 = icmp sge i32 %128, %129
  br i1 %130, label %131, label %145

131:                                              ; preds = %127
  %132 = load i32, i32* %5, align 4
  %133 = sext i32 %132 to i64
  %134 = getelementptr inbounds [100 x [100 x i32]], [100 x [100 x i32]]* %2, i64 0, i64 %133
  %135 = load i32, i32* %6, align 4
  %136 = sext i32 %135 to i64
  %137 = getelementptr inbounds [100 x i32], [100 x i32]* %134, i64 0, i64 %136
  %138 = load i32, i32* %137, align 4
  %139 = call i32 (i8*, ...) @printf(i8* getelementptr inbounds ([4 x i8], [4 x i8]* @.str.2, i64 0, i64 0), i32 %138)
  %140 = load i32, i32* %12, align 4
  %141 = add nsw i32 %140, 1
  store i32 %141, i32* %12, align 4
  br label %142

142:                                              ; preds = %131
  %143 = load i32, i32* %5, align 4
  %144 = add nsw i32 %143, -1
  store i32 %144, i32* %5, align 4
  br label %127

145:                                              ; preds = %127
  %146 = load i32, i32* %9, align 4
  %147 = add nsw i32 %146, 1
  store i32 %147, i32* %9, align 4
  br label %148

148:                                              ; preds = %49, %145, %121, %97, %73
  br label %149

149:                                              ; preds = %148
  %150 = load i32, i32* %11, align 4
  %151 = add nsw i32 %150, 1
  store i32 %151, i32* %11, align 4
  br label %43

152:                                              ; preds = %43
  ret i32 0
}

declare dso_local i32 @__isoc99_scanf(i8*, ...) #1

declare dso_local i32 @printf(i8*, ...) #1


!llvm.module.flags = !{!0}
!llvm.ident = !{!1}

!0 = !{i32 1, !"wchar_size", i32 4}
!1 = !{!"clang version 10.0.0-4ubuntu1 "}
